; Function Attrs: mustprogress nofree norecurse nosync nounwind willreturn memory(argmem: readwrite) uwtable
define void @ARKodeSPRKTable_Space(ptr noundef readonly captures(none) %0, ptr noundef writeonly captures(none) initializes((0, 8)) %1, ptr noundef writeonly captures(none) initializes((0, 8)) %2) local_unnamed_addr #7 {
  store i64 2, ptr %1, align 8, !tbaa !16
  %4 = getelementptr inbounds nuw i8, ptr %0, i64 4
  %5 = load i32, ptr %4, align 4, !tbaa !11
  %6 = shl nsw i32 %5, 1
  %7 = sext i32 %6 to i64
  store i64 %7, ptr %2, align 8, !tbaa !16
  ret void
}